; Function Attrs: mustprogress uwtable
define noundef i32 @_ZNK7Imf_3_218DeepTiledInputFile9numLevelsEv(ptr nocapture noundef nonnull readonly align 8 dereferenceable(16) %this) local_unnamed_addr #3 align 2 personality ptr @__gxx_personality_v0 {
entry:
  %_iex_throw_s = alloca %"class.std::__cxx11::basic_stringstream", align 8
  %_data.i = getelementptr inbounds i8, ptr %this, i64 8
  %0 = load ptr, ptr %_data.i, align 8
  %mode.i = getelementptr inbounds i8, ptr %0, i64 104
  %1 = load i32, ptr %mode.i, align 8
  %cmp = icmp eq i32 %1, 2
  br i1 %cmp, label %do.body, label %if.end

do.body:                                          ; preds = %entry
  tail call void @_Z13iex_debugTrapv()
  call void @_ZNSt7__cxx1118basic_stringstreamIcSt11char_traitsIcESaIcEEC1Ev(ptr noundef nonnull align 8 dereferenceable(128) %_iex_throw_s)
  %add.ptr = getelementptr inbounds i8, ptr %_iex_throw_s, i64 16
  %call2 = invoke noundef nonnull align 8 dereferenceable(8) ptr @_ZStlsISt11char_traitsIcEERSt13basic_ostreamIcT_ES5_PKc(ptr noundef nonnull align 8 dereferenceable(8) %add.ptr, ptr noundef nonnull @.str.39)
          to label %invoke.cont unwind label %lpad

invoke.cont:                                      ; preds = %do.body
  %2 = load ptr, ptr %_data.i, align 8
  %_streamData.i = getelementptr inbounds i8, ptr %2, i64 472
  %3 = load ptr, ptr %_streamData.i, align 8
  %is.i = getelementptr inbounds i8, ptr %3, i64 40
  %4 = load ptr, ptr %is.i, align 8
  %call.i3 = invoke noundef ptr @_ZNK7Imf_3_27IStream8fileNameEv(ptr noundef nonnull align 8 dereferenceable(40) %4)
          to label %invoke.cont3 unwind label %lpad

invoke.cont3:                                     ; preds = %invoke.cont
  %call6 = invoke noundef nonnull align 8 dereferenceable(8) ptr @_ZStlsISt11char_traitsIcEERSt13basic_ostreamIcT_ES5_PKc(ptr noundef nonnull align 8 dereferenceable(8) %call2, ptr noundef %call.i3)
          to label %invoke.cont5 unwind label %lpad

invoke.cont5:                                     ; preds = %invoke.cont3
  %call8 = invoke noundef nonnull align 8 dereferenceable(8) ptr @_ZStlsISt11char_traitsIcEERSt13basic_ostreamIcT_ES5_PKc(ptr noundef nonnull align 8 dereferenceable(8) %call6, ptr noundef nonnull @.str.40)
          to label %invoke.cont7 unwind label %lpad

invoke.cont7:                                     ; preds = %invoke.cont5
  %exception = call ptr @__cxa_allocate_exception(i64 72) #20
  invoke void @_ZN7Iex_3_28LogicExcC1ERNSt7__cxx1118basic_stringstreamIcSt11char_traitsIcESaIcEEE(ptr noundef nonnull align 8 dereferenceable(72) %exception, ptr noundef nonnull align 8 dereferenceable(128) %_iex_throw_s)
          to label %invoke.cont10 unwind label %lpad9

invoke.cont10:                                    ; preds = %invoke.cont7
  invoke void @__cxa_throw(ptr nonnull %exception, ptr nonnull @_ZTIN7Iex_3_28LogicExcE, ptr nonnull @_ZN7Iex_3_28LogicExcD1Ev) #24
          to label %unreachable unwind label %lpad

lpad:                                             ; preds = %invoke.cont, %invoke.cont10, %invoke.cont5, %invoke.cont3, %do.body
  %5 = landingpad { ptr, i32 }
          cleanup
  br label %ehcleanup

lpad9:                                            ; preds = %invoke.cont7
  %6 = landingpad { ptr, i32 }
          cleanup
  call void @__cxa_free_exception(ptr %exception) #20
  br label %ehcleanup

ehcleanup:                                        ; preds = %lpad9, %lpad
  %.pn = phi { ptr, i32 } [ %5, %lpad ], [ %6, %lpad9 ]
  call void @_ZNSt7__cxx1118basic_stringstreamIcSt11char_traitsIcESaIcEED1Ev(ptr noundef nonnull align 8 dereferenceable(128) %_iex_throw_s) #20
  resume { ptr, i32 } %.pn

if.end:                                           ; preds = %entry
  %numXLevels = getelementptr inbounds i8, ptr %0, i64 244
  %7 = load i32, ptr %numXLevels, align 4
  ret i32 %7

unreachable:                                      ; preds = %invoke.cont10
  unreachable
}